target datalayout = "e-m:e-p270:32:32-p271:32:32-p272:64:64-i64:64-i128:128-f80:128-n8:16:32:64-S128"
target triple = "x86_64-pc-linux-gnu"

%struct.mbedtls_pk_info_t = type { i32, ptr, ptr, ptr, ptr, ptr, ptr, ptr, ptr, ptr, ptr, ptr }
%struct.mbedtls_pk_context = type { ptr, ptr }

; Function Attrs: mustprogress uwtable
define hidden i32 @mbedtls_pk_debug(ptr noundef %0, ptr noundef %1) #1 {
  %3 = alloca i32, align 4
  %4 = alloca ptr, align 8
  %5 = alloca ptr, align 8
  store ptr %0, ptr %4, align 8, !tbaa !3
  store ptr %1, ptr %5, align 8, !tbaa !37
  br label %6

6:                                                ; preds = %2
  br label %7

7:                                                ; preds = %6
  %8 = load ptr, ptr %4, align 8, !tbaa !3
  %9 = getelementptr inbounds nuw %struct.mbedtls_pk_context, ptr %8, i32 0, i32 0
  %10 = load ptr, ptr %9, align 8, !tbaa !8
  %11 = icmp eq ptr %10, null
  br i1 %11, label %12, label %13

12:                                               ; preds = %7
  store i32 -16000, ptr %3, align 4
  br label %31

13:                                               ; preds = %7
  %14 = load ptr, ptr %4, align 8, !tbaa !3
  %15 = getelementptr inbounds nuw %struct.mbedtls_pk_context, ptr %14, i32 0, i32 0
  %16 = load ptr, ptr %15, align 8, !tbaa !8
  %17 = getelementptr inbounds nuw %struct.mbedtls_pk_info_t, ptr %16, i32 0, i32 11
  %18 = load ptr, ptr %17, align 8, !tbaa !39
  %19 = icmp eq ptr %18, null
  br i1 %19, label %20, label %21

20:                                               ; preds = %13
  store i32 -16128, ptr %3, align 4
  br label %31

21:                                               ; preds = %13
  %22 = load ptr, ptr %4, align 8, !tbaa !3
  %23 = getelementptr inbounds nuw %struct.mbedtls_pk_context, ptr %22, i32 0, i32 0
  %24 = load ptr, ptr %23, align 8, !tbaa !8
  %25 = getelementptr inbounds nuw %struct.mbedtls_pk_info_t, ptr %24, i32 0, i32 11
  %26 = load ptr, ptr %25, align 8, !tbaa !39
  %27 = load ptr, ptr %4, align 8, !tbaa !3
  %28 = getelementptr inbounds nuw %struct.mbedtls_pk_context, ptr %27, i32 0, i32 1
  %29 = load ptr, ptr %28, align 8, !tbaa !11
  %30 = load ptr, ptr %5, align 8, !tbaa !37
  call void %26(ptr noundef %29, ptr noundef %30)
  store i32 0, ptr %3, align 4
  br label %31

31:                                               ; preds = %21, %20, %12
  %32 = load i32, ptr %3, align 4
  ret i32 %32
}