; Function Attrs: mustprogress uwtable
define hidden range(i32 -16128, 1) i32 @mbedtls_pk_debug(ptr noundef readonly captures(none) %0, ptr noundef %1) local_unnamed_addr #1 {
  %3 = load ptr, ptr %0, align 8, !tbaa !3
  %4 = icmp eq ptr %3, null
  br i1 %4, label %12, label %5

5:                                                ; preds = %2
  %6 = getelementptr inbounds nuw i8, ptr %3, i64 88
  %7 = load ptr, ptr %6, align 8, !tbaa !23
  %8 = icmp eq ptr %7, null
  br i1 %8, label %12, label %9

9:                                                ; preds = %5
  %10 = getelementptr inbounds nuw i8, ptr %0, i64 8
  %11 = load ptr, ptr %10, align 8, !tbaa !13
  tail call void %7(ptr noundef %11, ptr noundef %1)
  br label %12

12:                                               ; preds = %5, %2, %9
  %.0 = phi i32 [ 0, %9 ], [ -16000, %2 ], [ -16128, %5 ]
  ret i32 %.0
}